; Function Attrs: mustprogress nounwind uwtable
define hidden void @_ZN17StackWatermarkSet27safepoint_synchronize_beginEv() local_unnamed_addr #1 align 2 {
  %1 = alloca %class.JavaThreadIteratorWithHandle, align 8
  %2 = load ptr, ptr @_ZN8VMThread17_cur_vm_operationE, align 8
  %3 = load ptr, ptr %2, align 8
  %4 = getelementptr inbounds i8, ptr %3, i64 40
  %5 = load ptr, ptr %4, align 8
  %6 = tail call noundef zeroext i1 %5(ptr noundef nonnull align 8 dereferenceable(16) %2) #10
  br i1 %6, label %35, label %7

7:                                                ; preds = %0
  %8 = getelementptr inbounds i8, ptr %1, i64 8
  %9 = tail call align 8 ptr @llvm.threadlocal.address.p0(ptr align 8 @_ZN6Thread12_thr_currentE)
  %10 = load ptr, ptr %9, align 8
  call void @_ZN17ThreadsListHandleC1EP6Thread(ptr noundef nonnull align 8 dereferenceable(56) %8, ptr noundef %10) #10
  %11 = getelementptr inbounds i8, ptr %1, i64 64
  store i32 0, ptr %11, align 8
  %12 = getelementptr inbounds i8, ptr %1, i64 24
  %13 = load ptr, ptr %12, align 8
  %14 = getelementptr inbounds i8, ptr %13, i64 4
  %15 = load i32, ptr %14, align 4
  %.not.i5.not = icmp eq i32 %15, 0
  br i1 %.not.i5.not, label %_ZN28JavaThreadIteratorWithHandle4nextEv.exit.thread, label %_ZN28JavaThreadIteratorWithHandle4nextEv.exit

_ZN28JavaThreadIteratorWithHandle4nextEv.exit:    ; preds = %7, %_ZN17StackWatermarkSet16start_processingEP10JavaThread18StackWatermarkKind.exit
  %16 = phi ptr [ %31, %_ZN17StackWatermarkSet16start_processingEP10JavaThread18StackWatermarkKind.exit ], [ %13, %7 ]
  %17 = phi i32 [ %32, %_ZN17StackWatermarkSet16start_processingEP10JavaThread18StackWatermarkKind.exit ], [ 0, %7 ]
  %18 = add nuw i32 %17, 1
  store i32 %18, ptr %11, align 8
  %19 = getelementptr inbounds i8, ptr %16, i64 16
  %20 = load ptr, ptr %19, align 8
  %21 = zext i32 %17 to i64
  %22 = getelementptr inbounds ptr, ptr %20, i64 %21
  %23 = load ptr, ptr %22, align 8
  %.not = icmp eq ptr %23, null
  br i1 %.not, label %_ZN28JavaThreadIteratorWithHandle4nextEv.exit.thread, label %24

_ZN28JavaThreadIteratorWithHandle4nextEv.exit.thread: ; preds = %_ZN28JavaThreadIteratorWithHandle4nextEv.exit, %_ZN17StackWatermarkSet16start_processingEP10JavaThread18StackWatermarkKind.exit, %7
  call void @_ZN17ThreadsListHandleD1Ev(ptr noundef nonnull align 8 dereferenceable(56) %8) #10
  br label %35

24:                                               ; preds = %_ZN28JavaThreadIteratorWithHandle4nextEv.exit
  %25 = getelementptr inbounds i8, ptr %23, i64 1376
  %.07.i.i = load ptr, ptr %25, align 8
  %.not8.i.i = icmp eq ptr %.07.i.i, null
  br i1 %.not8.i.i, label %_ZN17StackWatermarkSet16start_processingEP10JavaThread18StackWatermarkKind.exit, label %.lr.ph.i.i

.lr.ph.i.i:                                       ; preds = %24, %29
  %.09.i.i = phi ptr [ %.0.i.i, %29 ], [ %.07.i.i, %24 ]
  %26 = getelementptr inbounds i8, ptr %.09.i.i, i64 152
  %27 = load i32, ptr %26, align 8
  %28 = icmp eq i32 %27, 0
  br i1 %28, label %_ZN17StackWatermarkSet3getEP10JavaThread18StackWatermarkKind.exit.i, label %29

29:                                               ; preds = %.lr.ph.i.i
  %30 = getelementptr inbounds i8, ptr %.09.i.i, i64 24
  %.0.i.i = load ptr, ptr %30, align 8
  %.not.i.i = icmp eq ptr %.0.i.i, null
  br i1 %.not.i.i, label %_ZN17StackWatermarkSet16start_processingEP10JavaThread18StackWatermarkKind.exit, label %.lr.ph.i.i, !llvm.loop !17

_ZN17StackWatermarkSet3getEP10JavaThread18StackWatermarkKind.exit.i: ; preds = %.lr.ph.i.i
  call void @_ZN14StackWatermark16start_processingEv(ptr noundef nonnull align 8 dereferenceable(176) %.09.i.i) #10
  %.pre = load i32, ptr %11, align 8
  %.pre7 = load ptr, ptr %12, align 8
  br label %_ZN17StackWatermarkSet16start_processingEP10JavaThread18StackWatermarkKind.exit

_ZN17StackWatermarkSet16start_processingEP10JavaThread18StackWatermarkKind.exit: ; preds = %29, %24, %_ZN17StackWatermarkSet3getEP10JavaThread18StackWatermarkKind.exit.i
  %31 = phi ptr [ %16, %24 ], [ %.pre7, %_ZN17StackWatermarkSet3getEP10JavaThread18StackWatermarkKind.exit.i ], [ %16, %29 ]
  %32 = phi i32 [ %18, %24 ], [ %.pre, %_ZN17StackWatermarkSet3getEP10JavaThread18StackWatermarkKind.exit.i ], [ %18, %29 ]
  %33 = getelementptr inbounds i8, ptr %31, i64 4
  %34 = load i32, ptr %33, align 4
  %.not.i = icmp ult i32 %32, %34
  br i1 %.not.i, label %_ZN28JavaThreadIteratorWithHandle4nextEv.exit, label %_ZN28JavaThreadIteratorWithHandle4nextEv.exit.thread, !llvm.loop !20

35:                                               ; preds = %0, %_ZN28JavaThreadIteratorWithHandle4nextEv.exit.thread
  ret void
}